; Function Attrs: mustprogress uwtable
define dso_local void @_ZNK4pbrt4Disk8ToStringB5cxx11Ev(ptr dead_on_unwind noalias writable sret(%"class.std::__cxx11::basic_string") align 8 %0, ptr noundef nonnull align 8 dereferenceable(36) %1) local_unnamed_addr #4 align 2 personality ptr @__gxx_personality_v0 {
  %3 = load ptr, ptr %1, align 8, !tbaa !60
  %4 = getelementptr inbounds nuw i8, ptr %1, i64 8
  %5 = load ptr, ptr %4, align 8, !tbaa !65
  %6 = getelementptr inbounds nuw i8, ptr %1, i64 16
  %7 = getelementptr inbounds nuw i8, ptr %1, i64 17
  %8 = getelementptr inbounds nuw i8, ptr %1, i64 20
  %9 = getelementptr inbounds nuw i8, ptr %1, i64 24
  %10 = getelementptr inbounds nuw i8, ptr %1, i64 28
  %11 = getelementptr inbounds nuw i8, ptr %1, i64 32
  %12 = getelementptr inbounds nuw i8, ptr %0, i64 16
  store ptr %12, ptr %0, align 8, !tbaa !46, !alias.scope !66
  %13 = getelementptr inbounds nuw i8, ptr %0, i64 8
  store i64 0, ptr %13, align 8, !tbaa !52, !alias.scope !66
  store i8 0, ptr %12, align 8, !tbaa !54, !alias.scope !66
  invoke void @_ZN4pbrt6detail21stringPrintfRecursiveIRKNS_9TransformEJS4_RKbS6_RKfS8_S8_S8_EEEvPNSt7__cxx1112basic_stringIcSt11char_traitsIcESaIcEEEPKcOT_DpOT0_(ptr noundef nonnull align 8 %0, ptr noundef nonnull @.str.8, ptr noundef nonnull align 4 dereferenceable(128) %3, ptr noundef nonnull align 4 dereferenceable(128) %5, ptr noundef nonnull align 1 dereferenceable(1) %6, ptr noundef nonnull align 1 dereferenceable(1) %7, ptr noundef nonnull align 4 dereferenceable(4) %8, ptr noundef nonnull align 4 dereferenceable(4) %9, ptr noundef nonnull align 4 dereferenceable(4) %10, ptr noundef nonnull align 4 dereferenceable(4) %11)
          to label %_ZN4pbrt12StringPrintfIJRKNS_9TransformES3_RKbS5_RKfS7_S7_S7_EEENSt7__cxx1112basic_stringIcSt11char_traitsIcESaIcEEEPKcDpOT_.exit unwind label %14

14:                                               ; preds = %2
  %15 = landingpad { ptr, i32 }
          cleanup
  %16 = load ptr, ptr %0, align 8, !tbaa !55, !alias.scope !66
  %17 = icmp eq ptr %16, %12
  br i1 %17, label %_ZNKSt7__cxx1112basic_stringIcSt11char_traitsIcESaIcEE11_M_is_localEv.exit.thread.i.i.i, label %_ZNKSt7__cxx1112basic_stringIcSt11char_traitsIcESaIcEE11_M_is_localEv.exit.i.i.i

_ZNKSt7__cxx1112basic_stringIcSt11char_traitsIcESaIcEE11_M_is_localEv.exit.thread.i.i.i: ; preds = %14
  %18 = load i64, ptr %13, align 8, !tbaa !52, !alias.scope !66
  %19 = icmp ult i64 %18, 16
  tail call void @llvm.assume(i1 %19)
  br label %_ZNSt7__cxx1112basic_stringIcSt11char_traitsIcESaIcEED2Ev.exit.i

_ZNKSt7__cxx1112basic_stringIcSt11char_traitsIcESaIcEE11_M_is_localEv.exit.i.i.i: ; preds = %14
  %20 = load i64, ptr %12, align 8, !tbaa !54, !alias.scope !66
  %21 = add i64 %20, 1
  tail call void @_ZdlPvm(ptr noundef %16, i64 noundef %21) #32
  br label %_ZNSt7__cxx1112basic_stringIcSt11char_traitsIcESaIcEED2Ev.exit.i

_ZNSt7__cxx1112basic_stringIcSt11char_traitsIcESaIcEED2Ev.exit.i: ; preds = %_ZNKSt7__cxx1112basic_stringIcSt11char_traitsIcESaIcEE11_M_is_localEv.exit.i.i.i, %_ZNKSt7__cxx1112basic_stringIcSt11char_traitsIcESaIcEE11_M_is_localEv.exit.thread.i.i.i
  resume { ptr, i32 } %15

_ZN4pbrt12StringPrintfIJRKNS_9TransformES3_RKbS5_RKfS7_S7_S7_EEENSt7__cxx1112basic_stringIcSt11char_traitsIcESaIcEEEPKcDpOT_.exit: ; preds = %2
  ret void
}